target datalayout = "e-m:e-p270:32:32-p271:32:32-p272:64:64-i64:64-i128:128-f80:128-n8:16:32:64-S128"
target triple = "x86_64-pc-linux-gnu"

%struct.H5O_ginfo_t = type { i32, i8, i16, i16, i8, i16, i16 }

@H5_libterm_g = external global i8, align 1
@H5P_init_g = external global i8, align 1
@H5G_def_ginfo_g = internal constant { i32, i8, i8, i16, i16, i8, i8, i16, i16 } { i32 0, i8 0, i8 0, i16 8, i16 6, i8 0, i8 0, i16 4, i16 8 }, align 4

; Function Attrs: nounwind uwtable
define internal i32 @H5P__gcrt_group_info_dec(ptr noundef %0, ptr noundef %1) #0 {
  %3 = alloca ptr, align 8
  %4 = alloca ptr, align 8
  %5 = alloca ptr, align 8
  %6 = alloca ptr, align 8
  %7 = alloca i32, align 4
  store ptr %0, ptr %3, align 8, !tbaa !34
  store ptr %1, ptr %4, align 8, !tbaa !34
  call void @llvm.lifetime.start.p0(i64 8, ptr %5) #6
  %8 = load ptr, ptr %4, align 8, !tbaa !34
  store ptr %8, ptr %5, align 8, !tbaa !35
  call void @llvm.lifetime.start.p0(i64 8, ptr %6) #6
  %9 = load ptr, ptr %3, align 8, !tbaa !34
  store ptr %9, ptr %6, align 8, !tbaa !37
  call void @llvm.lifetime.start.p0(i64 4, ptr %7) #6
  store i32 0, ptr %7, align 4, !tbaa !8
  %10 = load i8, ptr @H5P_init_g, align 1, !tbaa !10, !range !12, !noundef !13
  %11 = trunc i8 %10 to i1
  br i1 %11, label %16, label %12

12:                                               ; preds = %2
  %13 = load i8, ptr @H5_libterm_g, align 1, !tbaa !10, !range !12, !noundef !13
  %14 = trunc i8 %13 to i1
  %15 = xor i1 %14, true
  br label %16

16:                                               ; preds = %12, %2
  %17 = phi i1 [ true, %2 ], [ %15, %12 ]
  %18 = xor i1 %17, true
  %19 = xor i1 %18, true
  %20 = zext i1 %19 to i32
  %21 = sext i32 %20 to i64
  %22 = call i64 @llvm.expect.i64(i64 %21, i64 1)
  %23 = icmp ne i64 %22, 0
  br i1 %23, label %24, label %239

24:                                               ; preds = %16
  %25 = load ptr, ptr %5, align 8, !tbaa !35
  call void @llvm.memset.p0.i64(ptr align 4 %25, i8 0, i64 16, i1 false)
  %26 = load ptr, ptr %5, align 8, !tbaa !35
  call void @llvm.memcpy.p0.p0.i64(ptr align 4 %26, ptr align 4 @H5G_def_ginfo_g, i64 16, i1 false), !tbaa.struct !42
  br label %27

27:                                               ; preds = %24
  %28 = load ptr, ptr %6, align 8, !tbaa !37
  %29 = load ptr, ptr %28, align 8, !tbaa !39
  %30 = load i8, ptr %29, align 1, !tbaa !41
  %31 = zext i8 %30 to i32
  %32 = and i32 %31, 255
  %33 = load ptr, ptr %5, align 8, !tbaa !35
  %34 = getelementptr inbounds nuw %struct.H5O_ginfo_t, ptr %33, i32 0, i32 0
  store i32 %32, ptr %34, align 4, !tbaa !18
  %35 = load ptr, ptr %6, align 8, !tbaa !37
  %36 = load ptr, ptr %35, align 8, !tbaa !39
  %37 = getelementptr inbounds nuw i8, ptr %36, i32 1
  store ptr %37, ptr %35, align 8, !tbaa !39
  %38 = load ptr, ptr %6, align 8, !tbaa !37
  %39 = load ptr, ptr %38, align 8, !tbaa !39
  %40 = load i8, ptr %39, align 1, !tbaa !41
  %41 = zext i8 %40 to i32
  %42 = and i32 %41, 255
  %43 = shl i32 %42, 8
  %44 = load ptr, ptr %5, align 8, !tbaa !35
  %45 = getelementptr inbounds nuw %struct.H5O_ginfo_t, ptr %44, i32 0, i32 0
  %46 = load i32, ptr %45, align 4, !tbaa !18
  %47 = or i32 %46, %43
  store i32 %47, ptr %45, align 4, !tbaa !18
  %48 = load ptr, ptr %6, align 8, !tbaa !37
  %49 = load ptr, ptr %48, align 8, !tbaa !39
  %50 = getelementptr inbounds nuw i8, ptr %49, i32 1
  store ptr %50, ptr %48, align 8, !tbaa !39
  %51 = load ptr, ptr %6, align 8, !tbaa !37
  %52 = load ptr, ptr %51, align 8, !tbaa !39
  %53 = load i8, ptr %52, align 1, !tbaa !41
  %54 = zext i8 %53 to i32
  %55 = and i32 %54, 255
  %56 = shl i32 %55, 16
  %57 = load ptr, ptr %5, align 8, !tbaa !35
  %58 = getelementptr inbounds nuw %struct.H5O_ginfo_t, ptr %57, i32 0, i32 0
  %59 = load i32, ptr %58, align 4, !tbaa !18
  %60 = or i32 %59, %56
  store i32 %60, ptr %58, align 4, !tbaa !18
  %61 = load ptr, ptr %6, align 8, !tbaa !37
  %62 = load ptr, ptr %61, align 8, !tbaa !39
  %63 = getelementptr inbounds nuw i8, ptr %62, i32 1
  store ptr %63, ptr %61, align 8, !tbaa !39
  %64 = load ptr, ptr %6, align 8, !tbaa !37
  %65 = load ptr, ptr %64, align 8, !tbaa !39
  %66 = load i8, ptr %65, align 1, !tbaa !41
  %67 = zext i8 %66 to i32
  %68 = and i32 %67, 255
  %69 = shl i32 %68, 24
  %70 = load ptr, ptr %5, align 8, !tbaa !35
  %71 = getelementptr inbounds nuw %struct.H5O_ginfo_t, ptr %70, i32 0, i32 0
  %72 = load i32, ptr %71, align 4, !tbaa !18
  %73 = or i32 %72, %69
  store i32 %73, ptr %71, align 4, !tbaa !18
  %74 = load ptr, ptr %6, align 8, !tbaa !37
  %75 = load ptr, ptr %74, align 8, !tbaa !39
  %76 = getelementptr inbounds nuw i8, ptr %75, i32 1
  store ptr %76, ptr %74, align 8, !tbaa !39
  br label %77

77:                                               ; preds = %27
  br label %78

78:                                               ; preds = %77
  br label %79

79:                                               ; preds = %78
  %80 = load ptr, ptr %6, align 8, !tbaa !37
  %81 = load ptr, ptr %80, align 8, !tbaa !39
  %82 = load i8, ptr %81, align 1, !tbaa !41
  %83 = zext i8 %82 to i32
  %84 = and i32 %83, 255
  %85 = trunc i32 %84 to i16
  %86 = load ptr, ptr %5, align 8, !tbaa !35
  %87 = getelementptr inbounds nuw %struct.H5O_ginfo_t, ptr %86, i32 0, i32 2
  store i16 %85, ptr %87, align 2, !tbaa !24
  %88 = load ptr, ptr %6, align 8, !tbaa !37
  %89 = load ptr, ptr %88, align 8, !tbaa !39
  %90 = getelementptr inbounds nuw i8, ptr %89, i32 1
  store ptr %90, ptr %88, align 8, !tbaa !39
  %91 = load ptr, ptr %6, align 8, !tbaa !37
  %92 = load ptr, ptr %91, align 8, !tbaa !39
  %93 = load i8, ptr %92, align 1, !tbaa !41
  %94 = zext i8 %93 to i32
  %95 = and i32 %94, 255
  %96 = shl i32 %95, 8
  %97 = trunc i32 %96 to i16
  %98 = zext i16 %97 to i32
  %99 = load ptr, ptr %5, align 8, !tbaa !35
  %100 = getelementptr inbounds nuw %struct.H5O_ginfo_t, ptr %99, i32 0, i32 2
  %101 = load i16, ptr %100, align 2, !tbaa !24
  %102 = zext i16 %101 to i32
  %103 = or i32 %102, %98
  %104 = trunc i32 %103 to i16
  store i16 %104, ptr %100, align 2, !tbaa !24
  %105 = load ptr, ptr %6, align 8, !tbaa !37
  %106 = load ptr, ptr %105, align 8, !tbaa !39
  %107 = getelementptr inbounds nuw i8, ptr %106, i32 1
  store ptr %107, ptr %105, align 8, !tbaa !39
  br label %108

108:                                              ; preds = %79
  br label %109

109:                                              ; preds = %108
  br label %110

110:                                              ; preds = %109
  %111 = load ptr, ptr %6, align 8, !tbaa !37
  %112 = load ptr, ptr %111, align 8, !tbaa !39
  %113 = load i8, ptr %112, align 1, !tbaa !41
  %114 = zext i8 %113 to i32
  %115 = and i32 %114, 255
  %116 = trunc i32 %115 to i16
  %117 = load ptr, ptr %5, align 8, !tbaa !35
  %118 = getelementptr inbounds nuw %struct.H5O_ginfo_t, ptr %117, i32 0, i32 3
  store i16 %116, ptr %118, align 4, !tbaa !25
  %119 = load ptr, ptr %6, align 8, !tbaa !37
  %120 = load ptr, ptr %119, align 8, !tbaa !39
  %121 = getelementptr inbounds nuw i8, ptr %120, i32 1
  store ptr %121, ptr %119, align 8, !tbaa !39
  %122 = load ptr, ptr %6, align 8, !tbaa !37
  %123 = load ptr, ptr %122, align 8, !tbaa !39
  %124 = load i8, ptr %123, align 1, !tbaa !41
  %125 = zext i8 %124 to i32
  %126 = and i32 %125, 255
  %127 = shl i32 %126, 8
  %128 = trunc i32 %127 to i16
  %129 = zext i16 %128 to i32
  %130 = load ptr, ptr %5, align 8, !tbaa !35
  %131 = getelementptr inbounds nuw %struct.H5O_ginfo_t, ptr %130, i32 0, i32 3
  %132 = load i16, ptr %131, align 4, !tbaa !25
  %133 = zext i16 %132 to i32
  %134 = or i32 %133, %129
  %135 = trunc i32 %134 to i16
  store i16 %135, ptr %131, align 4, !tbaa !25
  %136 = load ptr, ptr %6, align 8, !tbaa !37
  %137 = load ptr, ptr %136, align 8, !tbaa !39
  %138 = getelementptr inbounds nuw i8, ptr %137, i32 1
  store ptr %138, ptr %136, align 8, !tbaa !39
  br label %139

139:                                              ; preds = %110
  br label %140

140:                                              ; preds = %139
  br label %141

141:                                              ; preds = %140
  %142 = load ptr, ptr %6, align 8, !tbaa !37
  %143 = load ptr, ptr %142, align 8, !tbaa !39
  %144 = load i8, ptr %143, align 1, !tbaa !41
  %145 = zext i8 %144 to i32
  %146 = and i32 %145, 255
  %147 = trunc i32 %146 to i16
  %148 = load ptr, ptr %5, align 8, !tbaa !35
  %149 = getelementptr inbounds nuw %struct.H5O_ginfo_t, ptr %148, i32 0, i32 5
  store i16 %147, ptr %149, align 4, !tbaa !29
  %150 = load ptr, ptr %6, align 8, !tbaa !37
  %151 = load ptr, ptr %150, align 8, !tbaa !39
  %152 = getelementptr inbounds nuw i8, ptr %151, i32 1
  store ptr %152, ptr %150, align 8, !tbaa !39
  %153 = load ptr, ptr %6, align 8, !tbaa !37
  %154 = load ptr, ptr %153, align 8, !tbaa !39
  %155 = load i8, ptr %154, align 1, !tbaa !41
  %156 = zext i8 %155 to i32
  %157 = and i32 %156, 255
  %158 = shl i32 %157, 8
  %159 = trunc i32 %158 to i16
  %160 = zext i16 %159 to i32
  %161 = load ptr, ptr %5, align 8, !tbaa !35
  %162 = getelementptr inbounds nuw %struct.H5O_ginfo_t, ptr %161, i32 0, i32 5
  %163 = load i16, ptr %162, align 4, !tbaa !29
  %164 = zext i16 %163 to i32
  %165 = or i32 %164, %160
  %166 = trunc i32 %165 to i16
  store i16 %166, ptr %162, align 4, !tbaa !29
  %167 = load ptr, ptr %6, align 8, !tbaa !37
  %168 = load ptr, ptr %167, align 8, !tbaa !39
  %169 = getelementptr inbounds nuw i8, ptr %168, i32 1
  store ptr %169, ptr %167, align 8, !tbaa !39
  br label %170

170:                                              ; preds = %141
  br label %171

171:                                              ; preds = %170
  br label %172

172:                                              ; preds = %171
  %173 = load ptr, ptr %6, align 8, !tbaa !37
  %174 = load ptr, ptr %173, align 8, !tbaa !39
  %175 = load i8, ptr %174, align 1, !tbaa !41
  %176 = zext i8 %175 to i32
  %177 = and i32 %176, 255
  %178 = trunc i32 %177 to i16
  %179 = load ptr, ptr %5, align 8, !tbaa !35
  %180 = getelementptr inbounds nuw %struct.H5O_ginfo_t, ptr %179, i32 0, i32 6
  store i16 %178, ptr %180, align 2, !tbaa !30
  %181 = load ptr, ptr %6, align 8, !tbaa !37
  %182 = load ptr, ptr %181, align 8, !tbaa !39
  %183 = getelementptr inbounds nuw i8, ptr %182, i32 1
  store ptr %183, ptr %181, align 8, !tbaa !39
  %184 = load ptr, ptr %6, align 8, !tbaa !37
  %185 = load ptr, ptr %184, align 8, !tbaa !39
  %186 = load i8, ptr %185, align 1, !tbaa !41
  %187 = zext i8 %186 to i32
  %188 = and i32 %187, 255
  %189 = shl i32 %188, 8
  %190 = trunc i32 %189 to i16
  %191 = zext i16 %190 to i32
  %192 = load ptr, ptr %5, align 8, !tbaa !35
  %193 = getelementptr inbounds nuw %struct.H5O_ginfo_t, ptr %192, i32 0, i32 6
  %194 = load i16, ptr %193, align 2, !tbaa !30
  %195 = zext i16 %194 to i32
  %196 = or i32 %195, %191
  %197 = trunc i32 %196 to i16
  store i16 %197, ptr %193, align 2, !tbaa !30
  %198 = load ptr, ptr %6, align 8, !tbaa !37
  %199 = load ptr, ptr %198, align 8, !tbaa !39
  %200 = getelementptr inbounds nuw i8, ptr %199, i32 1
  store ptr %200, ptr %198, align 8, !tbaa !39
  br label %201

201:                                              ; preds = %172
  br label %202

202:                                              ; preds = %201
  %203 = load ptr, ptr %5, align 8, !tbaa !35
  %204 = getelementptr inbounds nuw %struct.H5O_ginfo_t, ptr %203, i32 0, i32 2
  %205 = load i16, ptr %204, align 2, !tbaa !24
  %206 = zext i16 %205 to i32
  %207 = icmp ne i32 %206, 8
  br i1 %207, label %214, label %208

208:                                              ; preds = %202
  %209 = load ptr, ptr %5, align 8, !tbaa !35
  %210 = getelementptr inbounds nuw %struct.H5O_ginfo_t, ptr %209, i32 0, i32 3
  %211 = load i16, ptr %210, align 4, !tbaa !25
  %212 = zext i16 %211 to i32
  %213 = icmp ne i32 %212, 6
  br i1 %213, label %214, label %217

214:                                              ; preds = %208, %202
  %215 = load ptr, ptr %5, align 8, !tbaa !35
  %216 = getelementptr inbounds nuw %struct.H5O_ginfo_t, ptr %215, i32 0, i32 1
  store i8 1, ptr %216, align 4, !tbaa !23
  br label %220

217:                                              ; preds = %208
  %218 = load ptr, ptr %5, align 8, !tbaa !35
  %219 = getelementptr inbounds nuw %struct.H5O_ginfo_t, ptr %218, i32 0, i32 1
  store i8 0, ptr %219, align 4, !tbaa !23
  br label %220

220:                                              ; preds = %217, %214
  %221 = load ptr, ptr %5, align 8, !tbaa !35
  %222 = getelementptr inbounds nuw %struct.H5O_ginfo_t, ptr %221, i32 0, i32 5
  %223 = load i16, ptr %222, align 4, !tbaa !29
  %224 = zext i16 %223 to i32
  %225 = icmp ne i32 %224, 4
  br i1 %225, label %232, label %226

226:                                              ; preds = %220
  %227 = load ptr, ptr %5, align 8, !tbaa !35
  %228 = getelementptr inbounds nuw %struct.H5O_ginfo_t, ptr %227, i32 0, i32 6
  %229 = load i16, ptr %228, align 2, !tbaa !30
  %230 = zext i16 %229 to i32
  %231 = icmp ne i32 %230, 8
  br i1 %231, label %232, label %235

232:                                              ; preds = %226, %220
  %233 = load ptr, ptr %5, align 8, !tbaa !35
  %234 = getelementptr inbounds nuw %struct.H5O_ginfo_t, ptr %233, i32 0, i32 4
  store i8 1, ptr %234, align 2, !tbaa !28
  br label %238

235:                                              ; preds = %226
  %236 = load ptr, ptr %5, align 8, !tbaa !35
  %237 = getelementptr inbounds nuw %struct.H5O_ginfo_t, ptr %236, i32 0, i32 4
  store i8 0, ptr %237, align 2, !tbaa !28
  br label %238

238:                                              ; preds = %235, %232
  br label %239

239:                                              ; preds = %238, %16
  %240 = load i32, ptr %7, align 4, !tbaa !8
  call void @llvm.lifetime.end.p0(i64 4, ptr %7) #6
  call void @llvm.lifetime.end.p0(i64 8, ptr %6) #6
  call void @llvm.lifetime.end.p0(i64 8, ptr %5) #6
  ret i32 %240
}