; Function Attrs: mustprogress nofree norecurse nosync nounwind willreturn memory(read, argmem: readwrite, inaccessiblemem: none) uwtable
define internal noundef i32 @H5P__gcrt_group_info_dec(ptr noundef captures(none) %0, ptr noundef writeonly captures(none) %1) #5 {
  %3 = load i8, ptr @H5P_init_g, align 1, !tbaa !3, !range !7, !noundef !8
  %4 = trunc nuw i8 %3 to i1
  %5 = load i8, ptr @H5_libterm_g, align 1, !range !7
  %6 = trunc nuw i8 %5 to i1
  %7 = xor i1 %6, true
  %8 = select i1 %4, i1 true, i1 %7
  br i1 %8, label %.sink.split, label %66, !prof !9

.sink.split:                                      ; preds = %2
  tail call void @llvm.memcpy.p0.p0.i64(ptr noundef nonnull align 4 dereferenceable(16) %1, ptr noundef nonnull align 4 dereferenceable(16) @H5G_def_ginfo_g, i64 16, i1 false), !tbaa.struct !33
  %9 = load ptr, ptr %0, align 8, !tbaa !29
  %10 = load i8, ptr %9, align 1, !tbaa !32
  %11 = zext i8 %10 to i32
  store i32 %11, ptr %1, align 4, !tbaa !15
  %12 = getelementptr inbounds nuw i8, ptr %9, i64 1
  store ptr %12, ptr %0, align 8, !tbaa !29
  %13 = load i8, ptr %12, align 1, !tbaa !32
  %14 = zext i8 %13 to i32
  %15 = shl nuw nsw i32 %14, 8
  %16 = or disjoint i32 %15, %11
  store i32 %16, ptr %1, align 4, !tbaa !15
  %17 = getelementptr inbounds nuw i8, ptr %9, i64 2
  store ptr %17, ptr %0, align 8, !tbaa !29
  %18 = load i8, ptr %17, align 1, !tbaa !32
  %19 = zext i8 %18 to i32
  %20 = shl nuw nsw i32 %19, 16
  %21 = or disjoint i32 %20, %16
  store i32 %21, ptr %1, align 4, !tbaa !15
  %22 = getelementptr inbounds nuw i8, ptr %9, i64 3
  store ptr %22, ptr %0, align 8, !tbaa !29
  %23 = load i8, ptr %22, align 1, !tbaa !32
  %24 = zext i8 %23 to i32
  %25 = shl nuw i32 %24, 24
  %26 = or disjoint i32 %25, %21
  store i32 %26, ptr %1, align 4, !tbaa !15
  %27 = getelementptr inbounds nuw i8, ptr %9, i64 4
  store ptr %27, ptr %0, align 8, !tbaa !29
  %28 = load i8, ptr %27, align 1, !tbaa !32
  %29 = zext i8 %28 to i16
  %30 = getelementptr inbounds nuw i8, ptr %1, i64 6
  store i16 %29, ptr %30, align 2, !tbaa !20
  %31 = getelementptr inbounds nuw i8, ptr %9, i64 5
  store ptr %31, ptr %0, align 8, !tbaa !29
  %32 = load i8, ptr %31, align 1, !tbaa !32
  %33 = zext i8 %32 to i16
  %34 = shl nuw i16 %33, 8
  %35 = or disjoint i16 %34, %29
  store i16 %35, ptr %30, align 2, !tbaa !20
  %36 = getelementptr inbounds nuw i8, ptr %9, i64 6
  store ptr %36, ptr %0, align 8, !tbaa !29
  %37 = load i8, ptr %36, align 1, !tbaa !32
  %38 = zext i8 %37 to i16
  %39 = getelementptr inbounds nuw i8, ptr %1, i64 8
  store i16 %38, ptr %39, align 4, !tbaa !21
  %40 = getelementptr inbounds nuw i8, ptr %9, i64 7
  store ptr %40, ptr %0, align 8, !tbaa !29
  %41 = load i8, ptr %40, align 1, !tbaa !32
  %42 = zext i8 %41 to i16
  %43 = shl nuw i16 %42, 8
  %44 = or disjoint i16 %43, %38
  store i16 %44, ptr %39, align 4, !tbaa !21
  %45 = getelementptr inbounds nuw i8, ptr %9, i64 8
  store ptr %45, ptr %0, align 8, !tbaa !29
  %46 = load i8, ptr %45, align 1, !tbaa !32
  %47 = zext i8 %46 to i16
  %48 = getelementptr inbounds nuw i8, ptr %1, i64 12
  store i16 %47, ptr %48, align 4, !tbaa !24
  %49 = getelementptr inbounds nuw i8, ptr %9, i64 9
  store ptr %49, ptr %0, align 8, !tbaa !29
  %50 = load i8, ptr %49, align 1, !tbaa !32
  %51 = zext i8 %50 to i16
  %52 = shl nuw i16 %51, 8
  %53 = or disjoint i16 %52, %47
  store i16 %53, ptr %48, align 4, !tbaa !24
  %54 = getelementptr inbounds nuw i8, ptr %9, i64 10
  store ptr %54, ptr %0, align 8, !tbaa !29
  %55 = load i8, ptr %54, align 1, !tbaa !32
  %56 = zext i8 %55 to i16
  %57 = getelementptr inbounds nuw i8, ptr %1, i64 14
  store i16 %56, ptr %57, align 2, !tbaa !25
  %58 = getelementptr inbounds nuw i8, ptr %9, i64 11
  store ptr %58, ptr %0, align 8, !tbaa !29
  %59 = load i8, ptr %58, align 1, !tbaa !32
  %60 = zext i8 %59 to i16
  %61 = shl nuw i16 %60, 8
  %62 = or disjoint i16 %61, %56
  store i16 %62, ptr %57, align 2, !tbaa !25
  %63 = getelementptr inbounds nuw i8, ptr %9, i64 12
  store ptr %63, ptr %0, align 8, !tbaa !29
  %.not = icmp ne i16 %35, 8
  %.not48 = icmp ne i16 %44, 6
  %or.cond.not = select i1 %.not, i1 true, i1 %.not48
  %spec.select = zext i1 %or.cond.not to i8
  %64 = getelementptr inbounds nuw i8, ptr %1, i64 4
  store i8 %spec.select, ptr %64, align 4, !tbaa !19
  %.not49 = icmp ne i16 %53, 4
  %.not50 = icmp ne i16 %62, 8
  %or.cond51.not = select i1 %.not49, i1 true, i1 %.not50
  %. = zext i1 %or.cond51.not to i8
  %65 = getelementptr inbounds nuw i8, ptr %1, i64 10
  store i8 %., ptr %65, align 2, !tbaa !23
  br label %66

66:                                               ; preds = %.sink.split, %2
  ret i32 0
}